target datalayout = "e-m:e-p270:32:32-p271:32:32-p272:64:64-i64:64-i128:128-f80:128-n8:16:32:64-S128"
target triple = "x86_64-pc-linux-gnu"

@.str = private unnamed_addr constant [118 x i8] c"generated/home/dtcxzyw/WorkSpace/Projects/compilers/llvm-opt-benchmark/bench/libquic/libquic/boringssl/ssl/ssl_asn1.c\00", align 1

; Function Attrs: nounwind uwtable
define hidden i32 @SSL_SESSION_to_bytes(ptr noundef %0, ptr noundef %1, ptr noundef %2) #0 {
  %4 = alloca ptr, align 8
  %5 = alloca ptr, align 8
  %6 = alloca ptr, align 8
  store ptr %0, ptr %4, align 8, !tbaa !6
  store ptr %1, ptr %5, align 8, !tbaa !11
  store ptr %2, ptr %6, align 8, !tbaa !13
  %7 = load ptr, ptr %4, align 8, !tbaa !6
  %8 = load ptr, ptr %5, align 8, !tbaa !11
  %9 = load ptr, ptr %6, align 8, !tbaa !13
  %10 = call i32 @SSL_SESSION_to_bytes_full(ptr noundef %7, ptr noundef %8, ptr noundef %9, i32 noundef 0)
  ret i32 %10
}

; Function Attrs: nounwind uwtable
define hidden i32 @i2d_SSL_SESSION(ptr noundef %0, ptr noundef %1) #0 {
  %3 = alloca i32, align 4
  %4 = alloca ptr, align 8
  %5 = alloca ptr, align 8
  %6 = alloca ptr, align 8
  %7 = alloca i64, align 8
  %8 = alloca i32, align 4
  store ptr %0, ptr %4, align 8, !tbaa !6
  store ptr %1, ptr %5, align 8, !tbaa !11
  call void @llvm.lifetime.start.p0(i64 8, ptr %6) #6
  call void @llvm.lifetime.start.p0(i64 8, ptr %7) #6
  %9 = load ptr, ptr %4, align 8, !tbaa !6
  %10 = call i32 @SSL_SESSION_to_bytes(ptr noundef %9, ptr noundef %6, ptr noundef %7)
  %11 = icmp ne i32 %10, 0
  br i1 %11, label %13, label %12

12:                                               ; preds = %2
  store i32 -1, ptr %3, align 4
  store i32 1, ptr %8, align 4
  br label %34

13:                                               ; preds = %2
  %14 = load i64, ptr %7, align 8, !tbaa !48
  %15 = icmp ugt i64 %14, 2147483647
  br i1 %15, label %16, label %18

16:                                               ; preds = %13
  %17 = load ptr, ptr %6, align 8, !tbaa !51
  call void @free(ptr noundef %17) #6
  call void @ERR_put_error(i32 noundef 16, i32 noundef 0, i32 noundef 69, ptr noundef @.str, i32 noundef 391)
  store i32 -1, ptr %3, align 4
  store i32 1, ptr %8, align 4
  br label %34

18:                                               ; preds = %13
  %19 = load ptr, ptr %5, align 8, !tbaa !11
  %20 = icmp ne ptr %19, null
  br i1 %20, label %21, label %30

21:                                               ; preds = %18
  %22 = load ptr, ptr %5, align 8, !tbaa !11
  %23 = load ptr, ptr %22, align 8, !tbaa !51
  %24 = load ptr, ptr %6, align 8, !tbaa !51
  %25 = load i64, ptr %7, align 8, !tbaa !48
  call void @llvm.memcpy.p0.p0.i64(ptr align 1 %23, ptr align 1 %24, i64 %25, i1 false)
  %26 = load i64, ptr %7, align 8, !tbaa !48
  %27 = load ptr, ptr %5, align 8, !tbaa !11
  %28 = load ptr, ptr %27, align 8, !tbaa !51
  %29 = getelementptr inbounds nuw i8, ptr %28, i64 %26
  store ptr %29, ptr %27, align 8, !tbaa !51
  br label %30

30:                                               ; preds = %21, %18
  %31 = load ptr, ptr %6, align 8, !tbaa !51
  call void @free(ptr noundef %31) #6
  %32 = load i64, ptr %7, align 8, !tbaa !48
  %33 = trunc i64 %32 to i32
  store i32 %33, ptr %3, align 4
  store i32 1, ptr %8, align 4
  br label %34

34:                                               ; preds = %30, %16, %12
  call void @llvm.lifetime.end.p0(i64 8, ptr %7) #6
  call void @llvm.lifetime.end.p0(i64 8, ptr %6) #6
  %35 = load i32, ptr %3, align 4
  ret i32 %35
}