; Function Attrs: nounwind uwtable
define hidden i32 @i2d_SSL_SESSION(ptr noundef %0, ptr noundef captures(address_is_null) %1) local_unnamed_addr #0 {
  %3 = alloca ptr, align 8
  %4 = alloca i64, align 8
  call void @llvm.lifetime.start.p0(i64 8, ptr nonnull %3) #7
  call void @llvm.lifetime.start.p0(i64 8, ptr nonnull %4) #7
  %5 = call fastcc range(i32 0, 2) i32 @SSL_SESSION_to_bytes_full(ptr noundef %0, ptr noundef nonnull %3, ptr noundef nonnull %4, i32 noundef 0)
  %.not = icmp eq i32 %5, 0
  br i1 %.not, label %22, label %6

6:                                                ; preds = %2
  %7 = load i64, ptr %4, align 8, !tbaa !44
  %8 = icmp ugt i64 %7, 2147483647
  br i1 %8, label %9, label %11

9:                                                ; preds = %6
  %10 = load ptr, ptr %3, align 8, !tbaa !45
  call void @free(ptr noundef %10) #7
  call void @ERR_put_error(i32 noundef 16, i32 noundef 0, i32 noundef 69, ptr noundef nonnull @.str, i32 noundef 391) #7
  br label %22

11:                                               ; preds = %6
  %.not6 = icmp eq ptr %1, null
  br i1 %.not6, label %18, label %12

12:                                               ; preds = %11
  %13 = load ptr, ptr %1, align 8, !tbaa !45
  %14 = load ptr, ptr %3, align 8, !tbaa !45
  call void @llvm.memcpy.p0.p0.i64(ptr align 1 %13, ptr align 1 %14, i64 %7, i1 false)
  %15 = load i64, ptr %4, align 8, !tbaa !44
  %16 = load ptr, ptr %1, align 8, !tbaa !45
  %17 = getelementptr inbounds nuw i8, ptr %16, i64 %15
  store ptr %17, ptr %1, align 8, !tbaa !45
  br label %18

18:                                               ; preds = %12, %11
  %19 = load ptr, ptr %3, align 8, !tbaa !45
  call void @free(ptr noundef %19) #7
  %20 = load i64, ptr %4, align 8, !tbaa !44
  %21 = trunc i64 %20 to i32
  br label %22

22:                                               ; preds = %2, %18, %9
  %.0 = phi i32 [ -1, %9 ], [ %21, %18 ], [ -1, %2 ]
  call void @llvm.lifetime.end.p0(i64 8, ptr nonnull %4) #7
  call void @llvm.lifetime.end.p0(i64 8, ptr nonnull %3) #7
  ret i32 %.0
}